; Function Attrs: nounwind uwtable
define range(i32 0, 2) i32 @ossl_quic_stream_map_notify_totally_read(ptr noundef readnone captures(none) %0, ptr noundef captures(none) %1) local_unnamed_addr #0 {
  %3 = getelementptr inbounds nuw i8, ptr %1, i64 256
  %4 = load i64, ptr %3, align 8
  %5 = and i64 %4, 16711680
  %cond = icmp eq i64 %5, 196608
  br i1 %cond, label %6, label %11

6:                                                ; preds = %2
  %7 = and i64 %4, -16711681
  %8 = or disjoint i64 %7, 262144
  store i64 %8, ptr %3, align 8
  %9 = getelementptr inbounds nuw i8, ptr %1, i64 120
  %10 = load ptr, ptr %9, align 8, !tbaa !42
  tail call void @ossl_quic_rstream_free(ptr noundef %10) #13
  store ptr null, ptr %9, align 8, !tbaa !42
  br label %11

11:                                               ; preds = %2, %6
  %.0 = phi i32 [ 1, %6 ], [ 0, %2 ]
  ret i32 %.0
}